
cansja.elf:     file format elf32-avr

Sections:
Idx Name          Size      VMA       LMA       File off  Algn
  0 .text         00000912  00000000  00000000  00000074  2**1
                  CONTENTS, ALLOC, LOAD, READONLY, CODE
  1 .data         00000184  00800060  00000912  00000986  2**0
                  CONTENTS, ALLOC, LOAD, DATA
  2 .stab         000006cc  00000000  00000000  00000b0c  2**2
                  CONTENTS, READONLY, DEBUGGING
  3 .stabstr      00000054  00000000  00000000  000011d8  2**0
                  CONTENTS, READONLY, DEBUGGING
  4 .comment      00000011  00000000  00000000  0000122c  2**0
                  CONTENTS, READONLY

Disassembly of section .text:

00000000 <__vectors>:
   0:	10 c0       	rjmp	.+32     	; 0x22 <__ctors_end>
   2:	22 c0       	rjmp	.+68     	; 0x48 <__bad_interrupt>
   4:	21 c0       	rjmp	.+66     	; 0x48 <__bad_interrupt>
   6:	20 c0       	rjmp	.+64     	; 0x48 <__bad_interrupt>
   8:	1f c0       	rjmp	.+62     	; 0x48 <__bad_interrupt>
   a:	1e c0       	rjmp	.+60     	; 0x48 <__bad_interrupt>
   c:	1d c0       	rjmp	.+58     	; 0x48 <__bad_interrupt>
   e:	1c c0       	rjmp	.+56     	; 0x48 <__bad_interrupt>
  10:	1b c0       	rjmp	.+54     	; 0x48 <__bad_interrupt>
  12:	1a c0       	rjmp	.+52     	; 0x48 <__bad_interrupt>
  14:	19 c0       	rjmp	.+50     	; 0x48 <__bad_interrupt>
  16:	18 c0       	rjmp	.+48     	; 0x48 <__bad_interrupt>
  18:	17 c0       	rjmp	.+46     	; 0x48 <__bad_interrupt>
  1a:	16 c0       	rjmp	.+44     	; 0x48 <__bad_interrupt>
  1c:	15 c0       	rjmp	.+42     	; 0x48 <__bad_interrupt>
  1e:	14 c0       	rjmp	.+40     	; 0x48 <__bad_interrupt>
  20:	13 c0       	rjmp	.+38     	; 0x48 <__bad_interrupt>

00000022 <__ctors_end>:
  22:	11 24       	eor	r1, r1
  24:	1f be       	out	0x3f, r1	; 63
  26:	cf e5       	ldi	r28, 0x5F	; 95
  28:	d2 e0       	ldi	r29, 0x02	; 2
  2a:	de bf       	out	0x3e, r29	; 62
  2c:	cd bf       	out	0x3d, r28	; 61

0000002e <__do_copy_data>:
  2e:	11 e0       	ldi	r17, 0x01	; 1
  30:	a0 e6       	ldi	r26, 0x60	; 96
  32:	b0 e0       	ldi	r27, 0x00	; 0
  34:	e2 e1       	ldi	r30, 0x12	; 18
  36:	f9 e0       	ldi	r31, 0x09	; 9
  38:	02 c0       	rjmp	.+4      	; 0x3e <__SP_H__>
  3a:	05 90       	lpm	r0, Z+
  3c:	0d 92       	st	X+, r0
  3e:	a4 3e       	cpi	r26, 0xE4	; 228
  40:	b1 07       	cpc	r27, r17
  42:	d9 f7       	brne	.-10     	; 0x3a <__do_copy_data+0xc>
  44:	57 d3       	rcall	.+1710   	; 0x6f4 <main>
  46:	63 c4       	rjmp	.+2246   	; 0x90e <_exit>

00000048 <__bad_interrupt>:
  48:	db cf       	rjmp	.-74     	; 0x0 <__vectors>

0000004a <USART_Init>:
  4a:	80 b5       	in	r24, 0x20	; 32
  4c:	8f 7b       	andi	r24, 0xBF	; 191
  4e:	80 bd       	out	0x20, r24	; 32
  50:	59 98       	cbi	0x0b, 1	; 11
  52:	83 e3       	ldi	r24, 0x33	; 51
  54:	89 b9       	out	0x09, r24	; 9
  56:	10 bc       	out	0x20, r1	; 32
  58:	88 e1       	ldi	r24, 0x18	; 24
  5a:	8a b9       	out	0x0a, r24	; 10
  5c:	86 eb       	ldi	r24, 0xB6	; 182
  5e:	80 bd       	out	0x20, r24	; 32
  60:	08 95       	ret

00000062 <USART_Flush>:
  62:	5f 9b       	sbis	0x0b, 7	; 11
  64:	02 c0       	rjmp	.+4      	; 0x6a <USART_Flush+0x8>
  66:	8c b1       	in	r24, 0x0c	; 12
  68:	fc cf       	rjmp	.-8      	; 0x62 <USART_Flush>
  6a:	08 95       	ret

0000006c <USART_SendByte>:
  6c:	5d 9b       	sbis	0x0b, 5	; 11
  6e:	fe cf       	rjmp	.-4      	; 0x6c <USART_SendByte>
  70:	8c b9       	out	0x0c, r24	; 12
  72:	08 95       	ret

00000074 <USART_CrLf>:
  74:	8d e0       	ldi	r24, 0x0D	; 13
  76:	fa df       	rcall	.-12     	; 0x6c <USART_SendByte>
  78:	8a e0       	ldi	r24, 0x0A	; 10
  7a:	f8 cf       	rjmp	.-16     	; 0x6c <USART_SendByte>

0000007c <USART_StrOut>:
  7c:	1f 93       	push	r17
  7e:	cf 93       	push	r28
  80:	df 93       	push	r29
  82:	ec 01       	movw	r28, r24
  84:	19 91       	ld	r17, Y+
  86:	11 23       	and	r17, r17
  88:	49 f0       	breq	.+18     	; 0x9c <USART_StrOut+0x20>
  8a:	1a 30       	cpi	r17, 0x0A	; 10
  8c:	11 f0       	breq	.+4      	; 0x92 <USART_StrOut+0x16>
  8e:	1d 30       	cpi	r17, 0x0D	; 13
  90:	11 f4       	brne	.+4      	; 0x96 <USART_StrOut+0x1a>
  92:	8d e0       	ldi	r24, 0x0D	; 13
  94:	eb df       	rcall	.-42     	; 0x6c <USART_SendByte>
  96:	81 2f       	mov	r24, r17
  98:	e9 df       	rcall	.-46     	; 0x6c <USART_SendByte>
  9a:	f4 cf       	rjmp	.-24     	; 0x84 <USART_StrOut+0x8>
  9c:	df 91       	pop	r29
  9e:	cf 91       	pop	r28
  a0:	1f 91       	pop	r17
  a2:	08 95       	ret

000000a4 <USART_ReceiveByte>:
  a4:	5f 9b       	sbis	0x0b, 7	; 11
  a6:	fe cf       	rjmp	.-4      	; 0xa4 <USART_ReceiveByte>
  a8:	8c b1       	in	r24, 0x0c	; 12
  aa:	08 95       	ret

000000ac <ToDec>:
  ac:	28 2f       	mov	r18, r24
  ae:	30 e0       	ldi	r19, 0x00	; 0
  b0:	c9 01       	movw	r24, r18
  b2:	c0 97       	sbiw	r24, 0x30	; 48
  b4:	8a 30       	cpi	r24, 0x0A	; 10
  b6:	91 05       	cpc	r25, r1
  b8:	98 f0       	brcs	.+38     	; 0xe0 <ToDec+0x34>
  ba:	c9 01       	movw	r24, r18
  bc:	81 54       	subi	r24, 0x41	; 65
  be:	91 09       	sbc	r25, r1
  c0:	06 97       	sbiw	r24, 0x06	; 6
  c2:	18 f4       	brcc	.+6      	; 0xca <ToDec+0x1e>
  c4:	c9 01       	movw	r24, r18
  c6:	c7 97       	sbiw	r24, 0x37	; 55
  c8:	08 95       	ret
  ca:	c9 01       	movw	r24, r18
  cc:	81 56       	subi	r24, 0x61	; 97
  ce:	91 09       	sbc	r25, r1
  d0:	06 97       	sbiw	r24, 0x06	; 6
  d2:	20 f4       	brcc	.+8      	; 0xdc <ToDec+0x30>
  d4:	c9 01       	movw	r24, r18
  d6:	87 55       	subi	r24, 0x57	; 87
  d8:	91 09       	sbc	r25, r1
  da:	08 95       	ret
  dc:	87 e4       	ldi	r24, 0x47	; 71
  de:	90 e0       	ldi	r25, 0x00	; 0
  e0:	08 95       	ret

000000e2 <USART_Convert>:
  e2:	cf 93       	push	r28
  e4:	df 93       	push	r29
  e6:	00 d0       	rcall	.+0      	; 0xe8 <USART_Convert+0x6>
  e8:	1f 92       	push	r1
  ea:	cd b7       	in	r28, 0x3d	; 61
  ec:	de b7       	in	r29, 0x3e	; 62
  ee:	1b 82       	std	Y+3, r1	; 0x03
  f0:	68 2f       	mov	r22, r24
  f2:	62 95       	swap	r22
  f4:	6f 70       	andi	r22, 0x0F	; 15
  f6:	46 2f       	mov	r20, r22
  f8:	50 e0       	ldi	r21, 0x00	; 0
  fa:	70 ef       	ldi	r23, 0xF0	; 240
  fc:	76 03       	mulsu	r23, r22
  fe:	90 01       	movw	r18, r0
 100:	11 24       	eor	r1, r1
 102:	28 0f       	add	r18, r24
 104:	31 1d       	adc	r19, r1
 106:	70 e0       	ldi	r23, 0x00	; 0
 108:	e0 e0       	ldi	r30, 0x00	; 0
 10a:	80 e0       	ldi	r24, 0x00	; 0
 10c:	90 e0       	ldi	r25, 0x00	; 0
 10e:	60 5d       	subi	r22, 0xD0	; 208
 110:	f0 e3       	ldi	r31, 0x30	; 48
 112:	f2 0f       	add	r31, r18
 114:	48 17       	cp	r20, r24
 116:	59 07       	cpc	r21, r25
 118:	09 f4       	brne	.+2      	; 0x11c <USART_Convert+0x3a>
 11a:	76 2f       	mov	r23, r22
 11c:	28 17       	cp	r18, r24
 11e:	39 07       	cpc	r19, r25
 120:	09 f4       	brne	.+2      	; 0x124 <USART_Convert+0x42>
 122:	ef 2f       	mov	r30, r31
 124:	01 96       	adiw	r24, 0x01	; 1
 126:	8a 30       	cpi	r24, 0x0A	; 10
 128:	91 05       	cpc	r25, r1
 12a:	a1 f7       	brne	.-24     	; 0x114 <USART_Convert+0x32>
 12c:	6e 2f       	mov	r22, r30
 12e:	8a e0       	ldi	r24, 0x0A	; 10
 130:	90 e0       	ldi	r25, 0x00	; 0
 132:	e7 e3       	ldi	r30, 0x37	; 55
 134:	e4 0f       	add	r30, r20
 136:	48 17       	cp	r20, r24
 138:	59 07       	cpc	r21, r25
 13a:	09 f4       	brne	.+2      	; 0x13e <USART_Convert+0x5c>
 13c:	7e 2f       	mov	r23, r30
 13e:	28 17       	cp	r18, r24
 140:	39 07       	cpc	r19, r25
 142:	11 f4       	brne	.+4      	; 0x148 <USART_Convert+0x66>
 144:	67 e3       	ldi	r22, 0x37	; 55
 146:	62 0f       	add	r22, r18
 148:	01 96       	adiw	r24, 0x01	; 1
 14a:	80 31       	cpi	r24, 0x10	; 16
 14c:	91 05       	cpc	r25, r1
 14e:	99 f7       	brne	.-26     	; 0x136 <USART_Convert+0x54>
 150:	79 83       	std	Y+1, r23	; 0x01
 152:	6a 83       	std	Y+2, r22	; 0x02
 154:	ce 01       	movw	r24, r28
 156:	01 96       	adiw	r24, 0x01	; 1
 158:	91 df       	rcall	.-222    	; 0x7c <USART_StrOut>
 15a:	0f 90       	pop	r0
 15c:	0f 90       	pop	r0
 15e:	0f 90       	pop	r0
 160:	df 91       	pop	r29
 162:	cf 91       	pop	r28
 164:	08 95       	ret

00000166 <USART_KbHit>:
 166:	80 b3       	in	r24, 0x10	; 16
 168:	80 95       	com	r24
 16a:	81 70       	andi	r24, 0x01	; 1
 16c:	08 95       	ret

0000016e <USART_ReceiveIdTx>:
 16e:	0f 93       	push	r16
 170:	1f 93       	push	r17
 172:	cf 93       	push	r28
 174:	df 93       	push	r29
 176:	7e df       	rcall	.-260    	; 0x74 <USART_CrLf>
 178:	88 e6       	ldi	r24, 0x68	; 104
 17a:	90 e0       	ldi	r25, 0x00	; 0
 17c:	7f df       	rcall	.-258    	; 0x7c <USART_StrOut>
 17e:	92 df       	rcall	.-220    	; 0xa4 <USART_ReceiveByte>
 180:	c8 2f       	mov	r28, r24
 182:	74 df       	rcall	.-280    	; 0x6c <USART_SendByte>
 184:	8c 2f       	mov	r24, r28
 186:	92 df       	rcall	.-220    	; 0xac <ToDec>
 188:	18 2f       	mov	r17, r24
 18a:	00 e0       	ldi	r16, 0x00	; 0
 18c:	8b df       	rcall	.-234    	; 0xa4 <USART_ReceiveByte>
 18e:	c8 2f       	mov	r28, r24
 190:	6d df       	rcall	.-294    	; 0x6c <USART_SendByte>
 192:	8c 2f       	mov	r24, r28
 194:	8b df       	rcall	.-234    	; 0xac <ToDec>
 196:	ec 01       	movw	r28, r24
 198:	84 e0       	ldi	r24, 0x04	; 4
 19a:	cc 0f       	add	r28, r28
 19c:	dd 1f       	adc	r29, r29
 19e:	8a 95       	dec	r24
 1a0:	e1 f7       	brne	.-8      	; 0x19a <USART_ReceiveIdTx+0x2c>
 1a2:	c0 0f       	add	r28, r16
 1a4:	d1 1f       	adc	r29, r17
 1a6:	7e df       	rcall	.-260    	; 0xa4 <USART_ReceiveByte>
 1a8:	18 2f       	mov	r17, r24
 1aa:	60 df       	rcall	.-320    	; 0x6c <USART_SendByte>
 1ac:	81 2f       	mov	r24, r17
 1ae:	7e df       	rcall	.-260    	; 0xac <ToDec>
 1b0:	c8 0f       	add	r28, r24
 1b2:	d9 1f       	adc	r29, r25
 1b4:	c1 15       	cp	r28, r1
 1b6:	28 e0       	ldi	r18, 0x08	; 8
 1b8:	d2 07       	cpc	r29, r18
 1ba:	28 f0       	brcs	.+10     	; 0x1c6 <USART_ReceiveIdTx+0x58>
 1bc:	8f e7       	ldi	r24, 0x7F	; 127
 1be:	90 e0       	ldi	r25, 0x00	; 0
 1c0:	5d df       	rcall	.-326    	; 0x7c <USART_StrOut>
 1c2:	cf ef       	ldi	r28, 0xFF	; 255
 1c4:	d7 e0       	ldi	r29, 0x07	; 7
 1c6:	56 df       	rcall	.-340    	; 0x74 <USART_CrLf>
 1c8:	55 df       	rcall	.-342    	; 0x74 <USART_CrLf>
 1ca:	87 e8       	ldi	r24, 0x87	; 135
 1cc:	90 e0       	ldi	r25, 0x00	; 0
 1ce:	56 df       	rcall	.-340    	; 0x7c <USART_StrOut>
 1d0:	9d 2f       	mov	r25, r29
 1d2:	80 e0       	ldi	r24, 0x00	; 0
 1d4:	8e 01       	movw	r16, r28
 1d6:	08 1b       	sub	r16, r24
 1d8:	19 0b       	sbc	r17, r25
 1da:	8d 2f       	mov	r24, r29
 1dc:	82 df       	rcall	.-252    	; 0xe2 <USART_Convert>
 1de:	80 2f       	mov	r24, r16
 1e0:	80 df       	rcall	.-256    	; 0xe2 <USART_Convert>
 1e2:	48 df       	rcall	.-368    	; 0x74 <USART_CrLf>
 1e4:	47 df       	rcall	.-370    	; 0x74 <USART_CrLf>
 1e6:	85 e9       	ldi	r24, 0x95	; 149
 1e8:	90 e0       	ldi	r25, 0x00	; 0
 1ea:	48 df       	rcall	.-368    	; 0x7c <USART_StrOut>
 1ec:	43 df       	rcall	.-378    	; 0x74 <USART_CrLf>
 1ee:	8b eb       	ldi	r24, 0xBB	; 187
 1f0:	90 e0       	ldi	r25, 0x00	; 0
 1f2:	44 df       	rcall	.-376    	; 0x7c <USART_StrOut>
 1f4:	3f df       	rcall	.-386    	; 0x74 <USART_CrLf>
 1f6:	8f ed       	ldi	r24, 0xDF	; 223
 1f8:	90 e0       	ldi	r25, 0x00	; 0
 1fa:	40 df       	rcall	.-384    	; 0x7c <USART_StrOut>
 1fc:	3b df       	rcall	.-394    	; 0x74 <USART_CrLf>
 1fe:	3a df       	rcall	.-396    	; 0x74 <USART_CrLf>
 200:	ce 01       	movw	r24, r28
 202:	df 91       	pop	r29
 204:	cf 91       	pop	r28
 206:	1f 91       	pop	r17
 208:	0f 91       	pop	r16
 20a:	08 95       	ret

0000020c <LCD_Delay>:
 20c:	8f e1       	ldi	r24, 0x1F	; 31
 20e:	9e e4       	ldi	r25, 0x4E	; 78
 210:	01 97       	sbiw	r24, 0x01	; 1
 212:	f1 f7       	brne	.-4      	; 0x210 <LCD_Delay+0x4>
 214:	00 c0       	rjmp	.+0      	; 0x216 <LCD_Delay+0xa>
 216:	00 00       	nop
 218:	08 95       	ret

0000021a <LCD_Intro>:
 21a:	98 2f       	mov	r25, r24
 21c:	92 95       	swap	r25
 21e:	9f 70       	andi	r25, 0x0F	; 15
 220:	95 bb       	out	0x15, r25	; 21
 222:	29 2f       	mov	r18, r25
 224:	20 61       	ori	r18, 0x10	; 16
 226:	25 bb       	out	0x15, r18	; 21
 228:	95 bb       	out	0x15, r25	; 21
 22a:	ef e1       	ldi	r30, 0x1F	; 31
 22c:	fe e4       	ldi	r31, 0x4E	; 78
 22e:	31 97       	sbiw	r30, 0x01	; 1
 230:	f1 f7       	brne	.-4      	; 0x22e <LCD_Intro+0x14>
 232:	00 c0       	rjmp	.+0      	; 0x234 <LCD_Intro+0x1a>
 234:	00 00       	nop
 236:	8f 70       	andi	r24, 0x0F	; 15
 238:	85 bb       	out	0x15, r24	; 21
 23a:	98 2f       	mov	r25, r24
 23c:	90 61       	ori	r25, 0x10	; 16
 23e:	95 bb       	out	0x15, r25	; 21
 240:	85 bb       	out	0x15, r24	; 21
 242:	8f e1       	ldi	r24, 0x1F	; 31
 244:	9e e4       	ldi	r25, 0x4E	; 78
 246:	01 97       	sbiw	r24, 0x01	; 1
 248:	f1 f7       	brne	.-4      	; 0x246 <LCD_Intro+0x2c>
 24a:	00 c0       	rjmp	.+0      	; 0x24c <LCD_Intro+0x32>
 24c:	00 00       	nop
 24e:	08 95       	ret

00000250 <LCD_Init>:
 250:	8f e1       	ldi	r24, 0x1F	; 31
 252:	9e e4       	ldi	r25, 0x4E	; 78
 254:	01 97       	sbiw	r24, 0x01	; 1
 256:	f1 f7       	brne	.-4      	; 0x254 <LCD_Init+0x4>
 258:	00 c0       	rjmp	.+0      	; 0x25a <LCD_Init+0xa>
 25a:	00 00       	nop
 25c:	8f e1       	ldi	r24, 0x1F	; 31
 25e:	9e e4       	ldi	r25, 0x4E	; 78
 260:	01 97       	sbiw	r24, 0x01	; 1
 262:	f1 f7       	brne	.-4      	; 0x260 <__stack+0x1>
 264:	00 c0       	rjmp	.+0      	; 0x266 <__stack+0x7>
 266:	00 00       	nop
 268:	8f e1       	ldi	r24, 0x1F	; 31
 26a:	9e e4       	ldi	r25, 0x4E	; 78
 26c:	01 97       	sbiw	r24, 0x01	; 1
 26e:	f1 f7       	brne	.-4      	; 0x26c <__stack+0xd>
 270:	00 c0       	rjmp	.+0      	; 0x272 <__stack+0x13>
 272:	00 00       	nop
 274:	8f ef       	ldi	r24, 0xFF	; 255
 276:	84 bb       	out	0x14, r24	; 20
 278:	15 ba       	out	0x15, r1	; 21
 27a:	8f e1       	ldi	r24, 0x1F	; 31
 27c:	9e e4       	ldi	r25, 0x4E	; 78
 27e:	01 97       	sbiw	r24, 0x01	; 1
 280:	f1 f7       	brne	.-4      	; 0x27e <__stack+0x1f>
 282:	00 c0       	rjmp	.+0      	; 0x284 <__stack+0x25>
 284:	00 00       	nop
 286:	83 e0       	ldi	r24, 0x03	; 3
 288:	85 bb       	out	0x15, r24	; 21
 28a:	93 e1       	ldi	r25, 0x13	; 19
 28c:	95 bb       	out	0x15, r25	; 21
 28e:	85 bb       	out	0x15, r24	; 21
 290:	8f e1       	ldi	r24, 0x1F	; 31
 292:	9e e4       	ldi	r25, 0x4E	; 78
 294:	01 97       	sbiw	r24, 0x01	; 1
 296:	f1 f7       	brne	.-4      	; 0x294 <__stack+0x35>
 298:	00 c0       	rjmp	.+0      	; 0x29a <__stack+0x3b>
 29a:	00 00       	nop
 29c:	8f e1       	ldi	r24, 0x1F	; 31
 29e:	9e e4       	ldi	r25, 0x4E	; 78
 2a0:	01 97       	sbiw	r24, 0x01	; 1
 2a2:	f1 f7       	brne	.-4      	; 0x2a0 <__stack+0x41>
 2a4:	00 c0       	rjmp	.+0      	; 0x2a6 <__stack+0x47>
 2a6:	00 00       	nop
 2a8:	83 e0       	ldi	r24, 0x03	; 3
 2aa:	85 bb       	out	0x15, r24	; 21
 2ac:	93 e1       	ldi	r25, 0x13	; 19
 2ae:	95 bb       	out	0x15, r25	; 21
 2b0:	85 bb       	out	0x15, r24	; 21
 2b2:	8f e1       	ldi	r24, 0x1F	; 31
 2b4:	9e e4       	ldi	r25, 0x4E	; 78
 2b6:	01 97       	sbiw	r24, 0x01	; 1
 2b8:	f1 f7       	brne	.-4      	; 0x2b6 <__stack+0x57>
 2ba:	00 c0       	rjmp	.+0      	; 0x2bc <__stack+0x5d>
 2bc:	00 00       	nop
 2be:	83 e0       	ldi	r24, 0x03	; 3
 2c0:	85 bb       	out	0x15, r24	; 21
 2c2:	93 e1       	ldi	r25, 0x13	; 19
 2c4:	95 bb       	out	0x15, r25	; 21
 2c6:	85 bb       	out	0x15, r24	; 21
 2c8:	8f e1       	ldi	r24, 0x1F	; 31
 2ca:	9e e4       	ldi	r25, 0x4E	; 78
 2cc:	01 97       	sbiw	r24, 0x01	; 1
 2ce:	f1 f7       	brne	.-4      	; 0x2cc <__stack+0x6d>
 2d0:	00 c0       	rjmp	.+0      	; 0x2d2 <__stack+0x73>
 2d2:	00 00       	nop
 2d4:	82 e0       	ldi	r24, 0x02	; 2
 2d6:	85 bb       	out	0x15, r24	; 21
 2d8:	92 e1       	ldi	r25, 0x12	; 18
 2da:	95 bb       	out	0x15, r25	; 21
 2dc:	85 bb       	out	0x15, r24	; 21
 2de:	8f e1       	ldi	r24, 0x1F	; 31
 2e0:	9e e4       	ldi	r25, 0x4E	; 78
 2e2:	01 97       	sbiw	r24, 0x01	; 1
 2e4:	f1 f7       	brne	.-4      	; 0x2e2 <__stack+0x83>
 2e6:	00 c0       	rjmp	.+0      	; 0x2e8 <__stack+0x89>
 2e8:	00 00       	nop
 2ea:	88 e2       	ldi	r24, 0x28	; 40
 2ec:	96 df       	rcall	.-212    	; 0x21a <LCD_Intro>
 2ee:	8c e0       	ldi	r24, 0x0C	; 12
 2f0:	94 df       	rcall	.-216    	; 0x21a <LCD_Intro>
 2f2:	81 e0       	ldi	r24, 0x01	; 1
 2f4:	92 df       	rcall	.-220    	; 0x21a <LCD_Intro>
 2f6:	86 e0       	ldi	r24, 0x06	; 6
 2f8:	90 cf       	rjmp	.-224    	; 0x21a <LCD_Intro>

000002fa <LCD_CharOut>:
 2fa:	28 2f       	mov	r18, r24
 2fc:	22 95       	swap	r18
 2fe:	2f 70       	andi	r18, 0x0F	; 15
 300:	92 2f       	mov	r25, r18
 302:	90 62       	ori	r25, 0x20	; 32
 304:	95 bb       	out	0x15, r25	; 21
 306:	20 63       	ori	r18, 0x30	; 48
 308:	25 bb       	out	0x15, r18	; 21
 30a:	95 bb       	out	0x15, r25	; 21
 30c:	ef e1       	ldi	r30, 0x1F	; 31
 30e:	fe e4       	ldi	r31, 0x4E	; 78
 310:	31 97       	sbiw	r30, 0x01	; 1
 312:	f1 f7       	brne	.-4      	; 0x310 <LCD_CharOut+0x16>
 314:	00 c0       	rjmp	.+0      	; 0x316 <LCD_CharOut+0x1c>
 316:	00 00       	nop
 318:	8f 70       	andi	r24, 0x0F	; 15
 31a:	98 2f       	mov	r25, r24
 31c:	90 62       	ori	r25, 0x20	; 32
 31e:	95 bb       	out	0x15, r25	; 21
 320:	80 63       	ori	r24, 0x30	; 48
 322:	85 bb       	out	0x15, r24	; 21
 324:	95 bb       	out	0x15, r25	; 21
 326:	8f e1       	ldi	r24, 0x1F	; 31
 328:	9e e4       	ldi	r25, 0x4E	; 78
 32a:	01 97       	sbiw	r24, 0x01	; 1
 32c:	f1 f7       	brne	.-4      	; 0x32a <LCD_CharOut+0x30>
 32e:	00 c0       	rjmp	.+0      	; 0x330 <LCD_CharOut+0x36>
 330:	00 00       	nop
 332:	08 95       	ret

00000334 <LCD_StrOut>:
 334:	cf 93       	push	r28
 336:	df 93       	push	r29
 338:	ec 01       	movw	r28, r24
 33a:	89 91       	ld	r24, Y+
 33c:	88 23       	and	r24, r24
 33e:	11 f0       	breq	.+4      	; 0x344 <LCD_StrOut+0x10>
 340:	dc df       	rcall	.-72     	; 0x2fa <LCD_CharOut>
 342:	fb cf       	rjmp	.-10     	; 0x33a <LCD_StrOut+0x6>
 344:	df 91       	pop	r29
 346:	cf 91       	pop	r28
 348:	08 95       	ret

0000034a <LCD_Clean>:
 34a:	cf 93       	push	r28
 34c:	c8 2f       	mov	r28, r24
 34e:	65 df       	rcall	.-310    	; 0x21a <LCD_Intro>
 350:	86 e1       	ldi	r24, 0x16	; 22
 352:	91 e0       	ldi	r25, 0x01	; 1
 354:	ef df       	rcall	.-34     	; 0x334 <LCD_StrOut>
 356:	8c 2f       	mov	r24, r28
 358:	cf 91       	pop	r28
 35a:	5f cf       	rjmp	.-322    	; 0x21a <LCD_Intro>

0000035c <LCD_Convert>:
 35c:	cf 93       	push	r28
 35e:	df 93       	push	r29
 360:	00 d0       	rcall	.+0      	; 0x362 <LCD_Convert+0x6>
 362:	1f 92       	push	r1
 364:	cd b7       	in	r28, 0x3d	; 61
 366:	de b7       	in	r29, 0x3e	; 62
 368:	1b 82       	std	Y+3, r1	; 0x03
 36a:	68 2f       	mov	r22, r24
 36c:	62 95       	swap	r22
 36e:	6f 70       	andi	r22, 0x0F	; 15
 370:	46 2f       	mov	r20, r22
 372:	50 e0       	ldi	r21, 0x00	; 0
 374:	70 ef       	ldi	r23, 0xF0	; 240
 376:	76 03       	mulsu	r23, r22
 378:	90 01       	movw	r18, r0
 37a:	11 24       	eor	r1, r1
 37c:	28 0f       	add	r18, r24
 37e:	31 1d       	adc	r19, r1
 380:	70 e0       	ldi	r23, 0x00	; 0
 382:	e0 e0       	ldi	r30, 0x00	; 0
 384:	80 e0       	ldi	r24, 0x00	; 0
 386:	90 e0       	ldi	r25, 0x00	; 0
 388:	60 5d       	subi	r22, 0xD0	; 208
 38a:	f0 e3       	ldi	r31, 0x30	; 48
 38c:	f2 0f       	add	r31, r18
 38e:	48 17       	cp	r20, r24
 390:	59 07       	cpc	r21, r25
 392:	09 f4       	brne	.+2      	; 0x396 <LCD_Convert+0x3a>
 394:	76 2f       	mov	r23, r22
 396:	28 17       	cp	r18, r24
 398:	39 07       	cpc	r19, r25
 39a:	09 f4       	brne	.+2      	; 0x39e <LCD_Convert+0x42>
 39c:	ef 2f       	mov	r30, r31
 39e:	01 96       	adiw	r24, 0x01	; 1
 3a0:	8a 30       	cpi	r24, 0x0A	; 10
 3a2:	91 05       	cpc	r25, r1
 3a4:	a1 f7       	brne	.-24     	; 0x38e <LCD_Convert+0x32>
 3a6:	6e 2f       	mov	r22, r30
 3a8:	8a e0       	ldi	r24, 0x0A	; 10
 3aa:	90 e0       	ldi	r25, 0x00	; 0
 3ac:	e7 e3       	ldi	r30, 0x37	; 55
 3ae:	e4 0f       	add	r30, r20
 3b0:	48 17       	cp	r20, r24
 3b2:	59 07       	cpc	r21, r25
 3b4:	09 f4       	brne	.+2      	; 0x3b8 <LCD_Convert+0x5c>
 3b6:	7e 2f       	mov	r23, r30
 3b8:	28 17       	cp	r18, r24
 3ba:	39 07       	cpc	r19, r25
 3bc:	11 f4       	brne	.+4      	; 0x3c2 <LCD_Convert+0x66>
 3be:	67 e3       	ldi	r22, 0x37	; 55
 3c0:	62 0f       	add	r22, r18
 3c2:	01 96       	adiw	r24, 0x01	; 1
 3c4:	80 31       	cpi	r24, 0x10	; 16
 3c6:	91 05       	cpc	r25, r1
 3c8:	99 f7       	brne	.-26     	; 0x3b0 <LCD_Convert+0x54>
 3ca:	79 83       	std	Y+1, r23	; 0x01
 3cc:	6a 83       	std	Y+2, r22	; 0x02
 3ce:	ce 01       	movw	r24, r28
 3d0:	01 96       	adiw	r24, 0x01	; 1
 3d2:	b0 df       	rcall	.-160    	; 0x334 <LCD_StrOut>
 3d4:	0f 90       	pop	r0
 3d6:	0f 90       	pop	r0
 3d8:	0f 90       	pop	r0
 3da:	df 91       	pop	r29
 3dc:	cf 91       	pop	r28
 3de:	08 95       	ret

000003e0 <SJA_Read>:
 3e0:	9f ef       	ldi	r25, 0xFF	; 255
 3e2:	91 bb       	out	0x11, r25	; 17
 3e4:	9a bb       	out	0x1a, r25	; 26
 3e6:	8b bb       	out	0x1b, r24	; 27
 3e8:	95 9a       	sbi	0x12, 5	; 18
 3ea:	95 98       	cbi	0x12, 5	; 18
 3ec:	1a ba       	out	0x1a, r1	; 26
 3ee:	97 98       	cbi	0x12, 7	; 18
 3f0:	9b bb       	out	0x1b, r25	; 27
 3f2:	89 b3       	in	r24, 0x19	; 25
 3f4:	97 9a       	sbi	0x12, 7	; 18
 3f6:	08 95       	ret

000003f8 <SJA_Write>:
 3f8:	9f ef       	ldi	r25, 0xFF	; 255
 3fa:	91 bb       	out	0x11, r25	; 17
 3fc:	9a bb       	out	0x1a, r25	; 26
 3fe:	8b bb       	out	0x1b, r24	; 27
 400:	95 9a       	sbi	0x12, 5	; 18
 402:	95 98       	cbi	0x12, 5	; 18
 404:	6b bb       	out	0x1b, r22	; 27
 406:	96 98       	cbi	0x12, 6	; 18
 408:	96 9a       	sbi	0x12, 6	; 18
 40a:	08 95       	ret

0000040c <SJA_Init>:
 40c:	0f 93       	push	r16
 40e:	1f 93       	push	r17
 410:	cf 93       	push	r28
 412:	df 93       	push	r29
 414:	ec 01       	movw	r28, r24
 416:	8b 01       	movw	r16, r22
 418:	8f ef       	ldi	r24, 0xFF	; 255
 41a:	81 bb       	out	0x11, r24	; 17
 41c:	80 ec       	ldi	r24, 0xC0	; 192
 41e:	82 bb       	out	0x12, r24	; 18
 420:	80 e0       	ldi	r24, 0x00	; 0
 422:	de df       	rcall	.-68     	; 0x3e0 <SJA_Read>
 424:	81 70       	andi	r24, 0x01	; 1
 426:	21 f4       	brne	.+8      	; 0x430 <SJA_Init+0x24>
 428:	61 e0       	ldi	r22, 0x01	; 1
 42a:	80 e0       	ldi	r24, 0x00	; 0
 42c:	e5 df       	rcall	.-54     	; 0x3f8 <SJA_Write>
 42e:	f8 cf       	rjmp	.-16     	; 0x420 <SJA_Init+0x14>
 430:	60 e0       	ldi	r22, 0x00	; 0
 432:	84 e0       	ldi	r24, 0x04	; 4
 434:	e1 df       	rcall	.-62     	; 0x3f8 <SJA_Write>
 436:	6f ef       	ldi	r22, 0xFF	; 255
 438:	85 e0       	ldi	r24, 0x05	; 5
 43a:	de df       	rcall	.-68     	; 0x3f8 <SJA_Write>
 43c:	68 81       	ld	r22, Y
 43e:	86 e0       	ldi	r24, 0x06	; 6
 440:	db df       	rcall	.-74     	; 0x3f8 <SJA_Write>
 442:	f8 01       	movw	r30, r16
 444:	60 81       	ld	r22, Z
 446:	87 e0       	ldi	r24, 0x07	; 7
 448:	d7 df       	rcall	.-82     	; 0x3f8 <SJA_Write>
 44a:	6a e1       	ldi	r22, 0x1A	; 26
 44c:	88 e0       	ldi	r24, 0x08	; 8
 44e:	d4 df       	rcall	.-88     	; 0x3f8 <SJA_Write>
 450:	67 e4       	ldi	r22, 0x47	; 71
 452:	8f e1       	ldi	r24, 0x1F	; 31
 454:	d1 df       	rcall	.-94     	; 0x3f8 <SJA_Write>
 456:	6e e5       	ldi	r22, 0x5E	; 94
 458:	80 e0       	ldi	r24, 0x00	; 0
 45a:	ce df       	rcall	.-100    	; 0x3f8 <SJA_Write>
 45c:	6c e0       	ldi	r22, 0x0C	; 12
 45e:	81 e0       	ldi	r24, 0x01	; 1
 460:	df 91       	pop	r29
 462:	cf 91       	pop	r28
 464:	1f 91       	pop	r17
 466:	0f 91       	pop	r16
 468:	c7 cf       	rjmp	.-114    	; 0x3f8 <SJA_Write>

0000046a <SJA_Dump>:
 46a:	04 de       	rcall	.-1016   	; 0x74 <USART_CrLf>
 46c:	03 de       	rcall	.-1018   	; 0x74 <USART_CrLf>
 46e:	87 e2       	ldi	r24, 0x27	; 39
 470:	91 e0       	ldi	r25, 0x01	; 1
 472:	04 de       	rcall	.-1016   	; 0x7c <USART_StrOut>
 474:	ff dd       	rcall	.-1026   	; 0x74 <USART_CrLf>
 476:	fe dd       	rcall	.-1028   	; 0x74 <USART_CrLf>
 478:	89 e3       	ldi	r24, 0x39	; 57
 47a:	91 e0       	ldi	r25, 0x01	; 1
 47c:	ff dd       	rcall	.-1026   	; 0x7c <USART_StrOut>
 47e:	82 e0       	ldi	r24, 0x02	; 2
 480:	af df       	rcall	.-162    	; 0x3e0 <SJA_Read>
 482:	2f de       	rcall	.-930    	; 0xe2 <USART_Convert>
 484:	f7 dd       	rcall	.-1042   	; 0x74 <USART_CrLf>
 486:	83 e4       	ldi	r24, 0x43	; 67
 488:	91 e0       	ldi	r25, 0x01	; 1
 48a:	f8 dd       	rcall	.-1040   	; 0x7c <USART_StrOut>
 48c:	8a e0       	ldi	r24, 0x0A	; 10
 48e:	a8 df       	rcall	.-176    	; 0x3e0 <SJA_Read>
 490:	28 de       	rcall	.-944    	; 0xe2 <USART_Convert>
 492:	f0 dd       	rcall	.-1056   	; 0x74 <USART_CrLf>
 494:	8d e4       	ldi	r24, 0x4D	; 77
 496:	91 e0       	ldi	r25, 0x01	; 1
 498:	f1 dd       	rcall	.-1054   	; 0x7c <USART_StrOut>
 49a:	8b e0       	ldi	r24, 0x0B	; 11
 49c:	a1 df       	rcall	.-190    	; 0x3e0 <SJA_Read>
 49e:	21 de       	rcall	.-958    	; 0xe2 <USART_Convert>
 4a0:	e9 dd       	rcall	.-1070   	; 0x74 <USART_CrLf>
 4a2:	87 e5       	ldi	r24, 0x57	; 87
 4a4:	91 e0       	ldi	r25, 0x01	; 1
 4a6:	ea dd       	rcall	.-1068   	; 0x7c <USART_StrOut>
 4a8:	8c e0       	ldi	r24, 0x0C	; 12
 4aa:	9a df       	rcall	.-204    	; 0x3e0 <SJA_Read>
 4ac:	1a de       	rcall	.-972    	; 0xe2 <USART_Convert>
 4ae:	80 e2       	ldi	r24, 0x20	; 32
 4b0:	dd dd       	rcall	.-1094   	; 0x6c <USART_SendByte>
 4b2:	8d e0       	ldi	r24, 0x0D	; 13
 4b4:	95 df       	rcall	.-214    	; 0x3e0 <SJA_Read>
 4b6:	15 de       	rcall	.-982    	; 0xe2 <USART_Convert>
 4b8:	80 e2       	ldi	r24, 0x20	; 32
 4ba:	d8 dd       	rcall	.-1104   	; 0x6c <USART_SendByte>
 4bc:	8e e0       	ldi	r24, 0x0E	; 14
 4be:	90 df       	rcall	.-224    	; 0x3e0 <SJA_Read>
 4c0:	10 de       	rcall	.-992    	; 0xe2 <USART_Convert>
 4c2:	80 e2       	ldi	r24, 0x20	; 32
 4c4:	d3 dd       	rcall	.-1114   	; 0x6c <USART_SendByte>
 4c6:	8f e0       	ldi	r24, 0x0F	; 15
 4c8:	8b df       	rcall	.-234    	; 0x3e0 <SJA_Read>
 4ca:	0b de       	rcall	.-1002   	; 0xe2 <USART_Convert>
 4cc:	80 e2       	ldi	r24, 0x20	; 32
 4ce:	ce dd       	rcall	.-1124   	; 0x6c <USART_SendByte>
 4d0:	80 e1       	ldi	r24, 0x10	; 16
 4d2:	86 df       	rcall	.-244    	; 0x3e0 <SJA_Read>
 4d4:	06 de       	rcall	.-1012   	; 0xe2 <USART_Convert>
 4d6:	80 e2       	ldi	r24, 0x20	; 32
 4d8:	c9 dd       	rcall	.-1134   	; 0x6c <USART_SendByte>
 4da:	81 e1       	ldi	r24, 0x11	; 17
 4dc:	81 df       	rcall	.-254    	; 0x3e0 <SJA_Read>
 4de:	01 de       	rcall	.-1022   	; 0xe2 <USART_Convert>
 4e0:	80 e2       	ldi	r24, 0x20	; 32
 4e2:	c4 dd       	rcall	.-1144   	; 0x6c <USART_SendByte>
 4e4:	82 e1       	ldi	r24, 0x12	; 18
 4e6:	7c df       	rcall	.-264    	; 0x3e0 <SJA_Read>
 4e8:	fc dd       	rcall	.-1032   	; 0xe2 <USART_Convert>
 4ea:	80 e2       	ldi	r24, 0x20	; 32
 4ec:	bf dd       	rcall	.-1154   	; 0x6c <USART_SendByte>
 4ee:	83 e1       	ldi	r24, 0x13	; 19
 4f0:	77 df       	rcall	.-274    	; 0x3e0 <SJA_Read>
 4f2:	f7 dd       	rcall	.-1042   	; 0xe2 <USART_Convert>
 4f4:	80 e2       	ldi	r24, 0x20	; 32
 4f6:	ba dd       	rcall	.-1164   	; 0x6c <USART_SendByte>
 4f8:	bd dd       	rcall	.-1158   	; 0x74 <USART_CrLf>
 4fa:	81 e6       	ldi	r24, 0x61	; 97
 4fc:	91 e0       	ldi	r25, 0x01	; 1
 4fe:	be dd       	rcall	.-1156   	; 0x7c <USART_StrOut>
 500:	84 e1       	ldi	r24, 0x14	; 20
 502:	6e df       	rcall	.-292    	; 0x3e0 <SJA_Read>
 504:	ee dd       	rcall	.-1060   	; 0xe2 <USART_Convert>
 506:	b6 dd       	rcall	.-1172   	; 0x74 <USART_CrLf>
 508:	8b e6       	ldi	r24, 0x6B	; 107
 50a:	91 e0       	ldi	r25, 0x01	; 1
 50c:	b7 dd       	rcall	.-1170   	; 0x7c <USART_StrOut>
 50e:	85 e1       	ldi	r24, 0x15	; 21
 510:	67 df       	rcall	.-306    	; 0x3e0 <SJA_Read>
 512:	e7 dd       	rcall	.-1074   	; 0xe2 <USART_Convert>
 514:	af dd       	rcall	.-1186   	; 0x74 <USART_CrLf>
 516:	85 e7       	ldi	r24, 0x75	; 117
 518:	91 e0       	ldi	r25, 0x01	; 1
 51a:	b0 dd       	rcall	.-1184   	; 0x7c <USART_StrOut>
 51c:	86 e1       	ldi	r24, 0x16	; 22
 51e:	60 df       	rcall	.-320    	; 0x3e0 <SJA_Read>
 520:	e0 dd       	rcall	.-1088   	; 0xe2 <USART_Convert>
 522:	80 e2       	ldi	r24, 0x20	; 32
 524:	a3 dd       	rcall	.-1210   	; 0x6c <USART_SendByte>
 526:	87 e1       	ldi	r24, 0x17	; 23
 528:	5b df       	rcall	.-330    	; 0x3e0 <SJA_Read>
 52a:	db dd       	rcall	.-1098   	; 0xe2 <USART_Convert>
 52c:	80 e2       	ldi	r24, 0x20	; 32
 52e:	9e dd       	rcall	.-1220   	; 0x6c <USART_SendByte>
 530:	88 e1       	ldi	r24, 0x18	; 24
 532:	56 df       	rcall	.-340    	; 0x3e0 <SJA_Read>
 534:	d6 dd       	rcall	.-1108   	; 0xe2 <USART_Convert>
 536:	80 e2       	ldi	r24, 0x20	; 32
 538:	99 dd       	rcall	.-1230   	; 0x6c <USART_SendByte>
 53a:	89 e1       	ldi	r24, 0x19	; 25
 53c:	51 df       	rcall	.-350    	; 0x3e0 <SJA_Read>
 53e:	d1 dd       	rcall	.-1118   	; 0xe2 <USART_Convert>
 540:	80 e2       	ldi	r24, 0x20	; 32
 542:	94 dd       	rcall	.-1240   	; 0x6c <USART_SendByte>
 544:	8a e1       	ldi	r24, 0x1A	; 26
 546:	4c df       	rcall	.-360    	; 0x3e0 <SJA_Read>
 548:	cc dd       	rcall	.-1128   	; 0xe2 <USART_Convert>
 54a:	80 e2       	ldi	r24, 0x20	; 32
 54c:	8f dd       	rcall	.-1250   	; 0x6c <USART_SendByte>
 54e:	8b e1       	ldi	r24, 0x1B	; 27
 550:	47 df       	rcall	.-370    	; 0x3e0 <SJA_Read>
 552:	c7 dd       	rcall	.-1138   	; 0xe2 <USART_Convert>
 554:	80 e2       	ldi	r24, 0x20	; 32
 556:	8a dd       	rcall	.-1260   	; 0x6c <USART_SendByte>
 558:	8c e1       	ldi	r24, 0x1C	; 28
 55a:	42 df       	rcall	.-380    	; 0x3e0 <SJA_Read>
 55c:	c2 dd       	rcall	.-1148   	; 0xe2 <USART_Convert>
 55e:	80 e2       	ldi	r24, 0x20	; 32
 560:	85 dd       	rcall	.-1270   	; 0x6c <USART_SendByte>
 562:	8d e1       	ldi	r24, 0x1D	; 29
 564:	3d df       	rcall	.-390    	; 0x3e0 <SJA_Read>
 566:	bd dd       	rcall	.-1158   	; 0xe2 <USART_Convert>
 568:	80 e2       	ldi	r24, 0x20	; 32
 56a:	80 dd       	rcall	.-1280   	; 0x6c <USART_SendByte>
 56c:	83 dd       	rcall	.-1274   	; 0x74 <USART_CrLf>
 56e:	64 e0       	ldi	r22, 0x04	; 4
 570:	81 e0       	ldi	r24, 0x01	; 1
 572:	42 cf       	rjmp	.-380    	; 0x3f8 <SJA_Write>

00000574 <SJA_CheckId>:
 574:	cf 93       	push	r28
 576:	df 93       	push	r29
 578:	84 e1       	ldi	r24, 0x14	; 20
 57a:	32 df       	rcall	.-412    	; 0x3e0 <SJA_Read>
 57c:	c8 2f       	mov	r28, r24
 57e:	85 e1       	ldi	r24, 0x15	; 21
 580:	2f df       	rcall	.-418    	; 0x3e0 <SJA_Read>
 582:	d8 2f       	mov	r29, r24
 584:	82 e0       	ldi	r24, 0x02	; 2
 586:	2c df       	rcall	.-424    	; 0x3e0 <SJA_Read>
 588:	80 ff       	sbrs	r24, 0
 58a:	0a c0       	rjmp	.+20     	; 0x5a0 <SJA_CheckId+0x2c>
 58c:	d2 95       	swap	r29
 58e:	d6 95       	lsr	r29
 590:	d7 70       	andi	r29, 0x07	; 7
 592:	28 e0       	ldi	r18, 0x08	; 8
 594:	c2 9f       	mul	r28, r18
 596:	c0 01       	movw	r24, r0
 598:	11 24       	eor	r1, r1
 59a:	8d 0f       	add	r24, r29
 59c:	91 1d       	adc	r25, r1
 59e:	02 c0       	rjmp	.+4      	; 0x5a4 <SJA_CheckId+0x30>
 5a0:	80 e0       	ldi	r24, 0x00	; 0
 5a2:	90 e0       	ldi	r25, 0x00	; 0
 5a4:	df 91       	pop	r29
 5a6:	cf 91       	pop	r28
 5a8:	08 95       	ret

000005aa <CAN_StrOut>:
 5aa:	0f 93       	push	r16
 5ac:	1f 93       	push	r17
 5ae:	cf 93       	push	r28
 5b0:	df 93       	push	r29
 5b2:	8c 01       	movw	r16, r24
 5b4:	eb 01       	movw	r28, r22
 5b6:	82 e0       	ldi	r24, 0x02	; 2
 5b8:	13 df       	rcall	.-474    	; 0x3e0 <SJA_Read>
 5ba:	82 ff       	sbrs	r24, 2
 5bc:	fc cf       	rjmp	.-8      	; 0x5b6 <CAN_StrOut+0xc>
 5be:	b8 01       	movw	r22, r16
 5c0:	93 e0       	ldi	r25, 0x03	; 3
 5c2:	76 95       	lsr	r23
 5c4:	67 95       	ror	r22
 5c6:	9a 95       	dec	r25
 5c8:	e1 f7       	brne	.-8      	; 0x5c2 <CAN_StrOut+0x18>
 5ca:	8a e0       	ldi	r24, 0x0A	; 10
 5cc:	15 df       	rcall	.-470    	; 0x3f8 <SJA_Write>
 5ce:	60 2f       	mov	r22, r16
 5d0:	62 95       	swap	r22
 5d2:	66 0f       	add	r22, r22
 5d4:	60 7e       	andi	r22, 0xE0	; 224
 5d6:	68 60       	ori	r22, 0x08	; 8
 5d8:	8b e0       	ldi	r24, 0x0B	; 11
 5da:	0e df       	rcall	.-484    	; 0x3f8 <SJA_Write>
 5dc:	68 81       	ld	r22, Y
 5de:	8c e0       	ldi	r24, 0x0C	; 12
 5e0:	0b df       	rcall	.-490    	; 0x3f8 <SJA_Write>
 5e2:	69 81       	ldd	r22, Y+1	; 0x01
 5e4:	8d e0       	ldi	r24, 0x0D	; 13
 5e6:	08 df       	rcall	.-496    	; 0x3f8 <SJA_Write>
 5e8:	6a 81       	ldd	r22, Y+2	; 0x02
 5ea:	8e e0       	ldi	r24, 0x0E	; 14
 5ec:	05 df       	rcall	.-502    	; 0x3f8 <SJA_Write>
 5ee:	6b 81       	ldd	r22, Y+3	; 0x03
 5f0:	8f e0       	ldi	r24, 0x0F	; 15
 5f2:	02 df       	rcall	.-508    	; 0x3f8 <SJA_Write>
 5f4:	6c 81       	ldd	r22, Y+4	; 0x04
 5f6:	80 e1       	ldi	r24, 0x10	; 16
 5f8:	ff de       	rcall	.-514    	; 0x3f8 <SJA_Write>
 5fa:	6d 81       	ldd	r22, Y+5	; 0x05
 5fc:	81 e1       	ldi	r24, 0x11	; 17
 5fe:	fc de       	rcall	.-520    	; 0x3f8 <SJA_Write>
 600:	6e 81       	ldd	r22, Y+6	; 0x06
 602:	82 e1       	ldi	r24, 0x12	; 18
 604:	f9 de       	rcall	.-526    	; 0x3f8 <SJA_Write>
 606:	6f 81       	ldd	r22, Y+7	; 0x07
 608:	83 e1       	ldi	r24, 0x13	; 19
 60a:	f6 de       	rcall	.-532    	; 0x3f8 <SJA_Write>
 60c:	61 e0       	ldi	r22, 0x01	; 1
 60e:	81 e0       	ldi	r24, 0x01	; 1
 610:	df 91       	pop	r29
 612:	cf 91       	pop	r28
 614:	1f 91       	pop	r17
 616:	0f 91       	pop	r16
 618:	ef ce       	rjmp	.-546    	; 0x3f8 <SJA_Write>

0000061a <CAN_Check>:
 61a:	0f 93       	push	r16
 61c:	1f 93       	push	r17
 61e:	cf 93       	push	r28
 620:	df 93       	push	r29
 622:	a8 df       	rcall	.-176    	; 0x574 <SJA_CheckId>
 624:	ec 01       	movw	r28, r24
 626:	88 ea       	ldi	r24, 0xA8	; 168
 628:	f8 dd       	rcall	.-1040   	; 0x21a <LCD_Intro>
 62a:	8f e7       	ldi	r24, 0x7F	; 127
 62c:	91 e0       	ldi	r25, 0x01	; 1
 62e:	82 de       	rcall	.-764    	; 0x334 <LCD_StrOut>
 630:	9d 2f       	mov	r25, r29
 632:	80 e0       	ldi	r24, 0x00	; 0
 634:	8e 01       	movw	r16, r28
 636:	08 1b       	sub	r16, r24
 638:	19 0b       	sbc	r17, r25
 63a:	8d 2f       	mov	r24, r29
 63c:	8f de       	rcall	.-738    	; 0x35c <LCD_Convert>
 63e:	80 2f       	mov	r24, r16
 640:	8d de       	rcall	.-742    	; 0x35c <LCD_Convert>
 642:	85 e2       	ldi	r24, 0x25	; 37
 644:	91 e0       	ldi	r25, 0x01	; 1
 646:	76 de       	rcall	.-788    	; 0x334 <LCD_StrOut>
 648:	c6 e1       	ldi	r28, 0x16	; 22
 64a:	8c 2f       	mov	r24, r28
 64c:	c9 de       	rcall	.-622    	; 0x3e0 <SJA_Read>
 64e:	55 de       	rcall	.-854    	; 0x2fa <LCD_CharOut>
 650:	cf 5f       	subi	r28, 0xFF	; 255
 652:	ce 31       	cpi	r28, 0x1E	; 30
 654:	d1 f7       	brne	.-12     	; 0x64a <CAN_Check+0x30>
 656:	df 91       	pop	r29
 658:	cf 91       	pop	r28
 65a:	1f 91       	pop	r17
 65c:	0f 91       	pop	r16
 65e:	0a cd       	rjmp	.-1516   	; 0x74 <USART_CrLf>

00000660 <CAN_MessOut>:
 660:	ef 92       	push	r14
 662:	ff 92       	push	r15
 664:	0f 93       	push	r16
 666:	1f 93       	push	r17
 668:	cf 93       	push	r28
 66a:	df 93       	push	r29
 66c:	cd b7       	in	r28, 0x3d	; 61
 66e:	de b7       	in	r29, 0x3e	; 62
 670:	29 97       	sbiw	r28, 0x09	; 9
 672:	0f b6       	in	r0, 0x3f	; 63
 674:	f8 94       	cli
 676:	de bf       	out	0x3e, r29	; 62
 678:	0f be       	out	0x3f, r0	; 63
 67a:	cd bf       	out	0x3d, r28	; 61
 67c:	8c 01       	movw	r16, r24
 67e:	12 dd       	rcall	.-1500   	; 0xa4 <USART_ReceiveByte>
 680:	f9 dc       	rcall	.-1550   	; 0x74 <USART_CrLf>
 682:	83 e8       	ldi	r24, 0x83	; 131
 684:	91 e0       	ldi	r25, 0x01	; 1
 686:	fa dc       	rcall	.-1548   	; 0x7c <USART_StrOut>
 688:	f5 dc       	rcall	.-1558   	; 0x74 <USART_CrLf>
 68a:	f1 2c       	mov	r15, r1
 68c:	2a e2       	ldi	r18, 0x2A	; 42
 68e:	e2 2e       	mov	r14, r18
 690:	09 dd       	rcall	.-1518   	; 0xa4 <USART_ReceiveByte>
 692:	8d 30       	cpi	r24, 0x0D	; 13
 694:	61 f4       	brne	.+24     	; 0x6ae <CAN_MessOut+0x4e>
 696:	e1 e0       	ldi	r30, 0x01	; 1
 698:	f0 e0       	ldi	r31, 0x00	; 0
 69a:	ec 0f       	add	r30, r28
 69c:	fd 1f       	adc	r31, r29
 69e:	ef 0d       	add	r30, r15
 6a0:	f1 1d       	adc	r31, r1
 6a2:	e0 82       	st	Z, r14
 6a4:	f3 94       	inc	r15
 6a6:	98 e0       	ldi	r25, 0x08	; 8
 6a8:	f9 12       	cpse	r15, r25
 6aa:	f5 cf       	rjmp	.-22     	; 0x696 <CAN_MessOut+0x36>
 6ac:	03 c0       	rjmp	.+6      	; 0x6b4 <CAN_MessOut+0x54>
 6ae:	81 36       	cpi	r24, 0x61	; 97
 6b0:	08 f0       	brcs	.+2      	; 0x6b4 <CAN_MessOut+0x54>
 6b2:	80 52       	subi	r24, 0x20	; 32
 6b4:	e1 e0       	ldi	r30, 0x01	; 1
 6b6:	f0 e0       	ldi	r31, 0x00	; 0
 6b8:	ec 0f       	add	r30, r28
 6ba:	fd 1f       	adc	r31, r29
 6bc:	ef 0d       	add	r30, r15
 6be:	f1 1d       	adc	r31, r1
 6c0:	80 83       	st	Z, r24
 6c2:	d4 dc       	rcall	.-1624   	; 0x6c <USART_SendByte>
 6c4:	f3 94       	inc	r15
 6c6:	87 e0       	ldi	r24, 0x07	; 7
 6c8:	8f 15       	cp	r24, r15
 6ca:	10 f7       	brcc	.-60     	; 0x690 <CAN_MessOut+0x30>
 6cc:	19 86       	std	Y+9, r1	; 0x09
 6ce:	d2 dc       	rcall	.-1628   	; 0x74 <USART_CrLf>
 6d0:	be 01       	movw	r22, r28
 6d2:	6f 5f       	subi	r22, 0xFF	; 255
 6d4:	7f 4f       	sbci	r23, 0xFF	; 255
 6d6:	c8 01       	movw	r24, r16
 6d8:	68 df       	rcall	.-304    	; 0x5aa <CAN_StrOut>
 6da:	29 96       	adiw	r28, 0x09	; 9
 6dc:	0f b6       	in	r0, 0x3f	; 63
 6de:	f8 94       	cli
 6e0:	de bf       	out	0x3e, r29	; 62
 6e2:	0f be       	out	0x3f, r0	; 63
 6e4:	cd bf       	out	0x3d, r28	; 61
 6e6:	df 91       	pop	r29
 6e8:	cf 91       	pop	r28
 6ea:	1f 91       	pop	r17
 6ec:	0f 91       	pop	r16
 6ee:	ff 90       	pop	r15
 6f0:	ef 90       	pop	r14
 6f2:	08 95       	ret

000006f4 <main>:
 6f4:	cf 93       	push	r28
 6f6:	df 93       	push	r29
 6f8:	cd b7       	in	r28, 0x3d	; 61
 6fa:	de b7       	in	r29, 0x3e	; 62
 6fc:	2c 97       	sbiw	r28, 0x0c	; 12
 6fe:	0f b6       	in	r0, 0x3f	; 63
 700:	f8 94       	cli
 702:	de bf       	out	0x3e, r29	; 62
 704:	0f be       	out	0x3f, r0	; 63
 706:	cd bf       	out	0x3d, r28	; 61
 708:	83 e0       	ldi	r24, 0x03	; 3
 70a:	8b 87       	std	Y+11, r24	; 0x0b
 70c:	8c e1       	ldi	r24, 0x1C	; 28
 70e:	8a 87       	std	Y+10, r24	; 0x0a
 710:	9c dc       	rcall	.-1736   	; 0x4a <USART_Init>
 712:	a7 dc       	rcall	.-1714   	; 0x62 <USART_Flush>
 714:	9d dd       	rcall	.-1222   	; 0x250 <LCD_Init>
 716:	8f ef       	ldi	r24, 0xFF	; 255
 718:	8a bb       	out	0x1a, r24	; 26
 71a:	87 bb       	out	0x17, r24	; 23
 71c:	11 ba       	out	0x11, r1	; 17
 71e:	be 01       	movw	r22, r28
 720:	66 5f       	subi	r22, 0xF6	; 246
 722:	7f 4f       	sbci	r23, 0xFF	; 255
 724:	ce 01       	movw	r24, r28
 726:	0b 96       	adiw	r24, 0x0b	; 11
 728:	71 de       	rcall	.-798    	; 0x40c <SJA_Init>
 72a:	9f de       	rcall	.-706    	; 0x46a <SJA_Dump>
 72c:	81 e0       	ldi	r24, 0x01	; 1
 72e:	0d de       	rcall	.-998    	; 0x34a <LCD_Clean>
 730:	83 eb       	ldi	r24, 0xB3	; 179
 732:	91 e0       	ldi	r25, 0x01	; 1
 734:	ff dd       	rcall	.-1026   	; 0x334 <LCD_StrOut>
 736:	88 ea       	ldi	r24, 0xA8	; 168
 738:	08 de       	rcall	.-1008   	; 0x34a <LCD_Clean>
 73a:	19 dd       	rcall	.-1486   	; 0x16e <USART_ReceiveIdTx>
 73c:	8c 01       	movw	r16, r24
 73e:	60 e6       	ldi	r22, 0x60	; 96
 740:	70 e0       	ldi	r23, 0x00	; 0
 742:	33 df       	rcall	.-410    	; 0x5aa <CAN_StrOut>
 744:	81 2e       	mov	r8, r17
 746:	80 e0       	ldi	r24, 0x00	; 0
 748:	70 2e       	mov	r7, r16
 74a:	78 1a       	sub	r7, r24
 74c:	c8 01       	movw	r24, r16
 74e:	01 96       	adiw	r24, 0x01	; 1
 750:	69 2e       	mov	r6, r25
 752:	20 e0       	ldi	r18, 0x00	; 0
 754:	58 2e       	mov	r5, r24
 756:	52 1a       	sub	r5, r18
 758:	9c 01       	movw	r18, r24
 75a:	43 e0       	ldi	r20, 0x03	; 3
 75c:	36 95       	lsr	r19
 75e:	27 95       	ror	r18
 760:	4a 95       	dec	r20
 762:	e1 f7       	brne	.-8      	; 0x75c <main+0x68>
 764:	42 2e       	mov	r4, r18
 766:	98 2e       	mov	r9, r24
 768:	92 94       	swap	r9
 76a:	99 0c       	add	r9, r9
 76c:	50 ee       	ldi	r21, 0xE0	; 224
 76e:	95 22       	and	r9, r21
 770:	89 2d       	mov	r24, r9
 772:	88 60       	ori	r24, 0x08	; 8
 774:	98 2e       	mov	r9, r24
 776:	e1 2c       	mov	r14, r1
 778:	f1 2c       	mov	r15, r1
 77a:	6a e0       	ldi	r22, 0x0A	; 10
 77c:	a6 2e       	mov	r10, r22
 77e:	b1 2c       	mov	r11, r1
 780:	82 e0       	ldi	r24, 0x02	; 2
 782:	2e de       	rcall	.-932    	; 0x3e0 <SJA_Read>
 784:	80 ff       	sbrs	r24, 0
 786:	95 c0       	rjmp	.+298    	; 0x8b2 <main+0x1be>
 788:	48 df       	rcall	.-368    	; 0x61a <CAN_Check>
 78a:	84 e1       	ldi	r24, 0x14	; 20
 78c:	29 de       	rcall	.-942    	; 0x3e0 <SJA_Read>
 78e:	d8 2e       	mov	r13, r24
 790:	85 e1       	ldi	r24, 0x15	; 21
 792:	26 de       	rcall	.-948    	; 0x3e0 <SJA_Read>
 794:	c8 2e       	mov	r12, r24
 796:	82 e0       	ldi	r24, 0x02	; 2
 798:	23 de       	rcall	.-954    	; 0x3e0 <SJA_Read>
 79a:	80 ff       	sbrs	r24, 0
 79c:	87 c0       	rjmp	.+270    	; 0x8ac <main+0x1b8>
 79e:	c2 94       	swap	r12
 7a0:	c6 94       	lsr	r12
 7a2:	37 e0       	ldi	r19, 0x07	; 7
 7a4:	c3 22       	and	r12, r19
 7a6:	98 e0       	ldi	r25, 0x08	; 8
 7a8:	d9 9e       	mul	r13, r25
 7aa:	90 01       	movw	r18, r0
 7ac:	11 24       	eor	r1, r1
 7ae:	2c 0d       	add	r18, r12
 7b0:	31 1d       	adc	r19, r1
 7b2:	22 30       	cpi	r18, 0x02	; 2
 7b4:	31 05       	cpc	r19, r1
 7b6:	09 f0       	breq	.+2      	; 0x7ba <main+0xc6>
 7b8:	5e c0       	rjmp	.+188    	; 0x876 <main+0x182>
 7ba:	fe 01       	movw	r30, r28
 7bc:	31 96       	adiw	r30, 0x01	; 1
 7be:	6f 01       	movw	r12, r30
 7c0:	96 e1       	ldi	r25, 0x16	; 22
 7c2:	89 2f       	mov	r24, r25
 7c4:	9c 87       	std	Y+12, r25	; 0x0c
 7c6:	0c de       	rcall	.-1000   	; 0x3e0 <SJA_Read>
 7c8:	f6 01       	movw	r30, r12
 7ca:	81 93       	st	Z+, r24
 7cc:	6f 01       	movw	r12, r30
 7ce:	9c 85       	ldd	r25, Y+12	; 0x0c
 7d0:	9f 5f       	subi	r25, 0xFF	; 255
 7d2:	9e 31       	cpi	r25, 0x1E	; 30
 7d4:	b1 f7       	brne	.-20     	; 0x7c2 <main+0xce>
 7d6:	19 86       	std	Y+9, r1	; 0x09
 7d8:	84 ec       	ldi	r24, 0xC4	; 196
 7da:	91 e0       	ldi	r25, 0x01	; 1
 7dc:	4f dc       	rcall	.-1890   	; 0x7c <USART_StrOut>
 7de:	ce 01       	movw	r24, r28
 7e0:	01 96       	adiw	r24, 0x01	; 1
 7e2:	4c dc       	rcall	.-1896   	; 0x7c <USART_StrOut>
 7e4:	8b ec       	ldi	r24, 0xCB	; 203
 7e6:	91 e0       	ldi	r25, 0x01	; 1
 7e8:	49 dc       	rcall	.-1902   	; 0x7c <USART_StrOut>
 7ea:	8d e8       	ldi	r24, 0x8D	; 141
 7ec:	90 e0       	ldi	r25, 0x00	; 0
 7ee:	46 dc       	rcall	.-1908   	; 0x7c <USART_StrOut>
 7f0:	88 2d       	mov	r24, r8
 7f2:	77 dc       	rcall	.-1810   	; 0xe2 <USART_Convert>
 7f4:	87 2d       	mov	r24, r7
 7f6:	75 dc       	rcall	.-1814   	; 0xe2 <USART_Convert>
 7f8:	8b ec       	ldi	r24, 0xCB	; 203
 7fa:	91 e0       	ldi	r25, 0x01	; 1
 7fc:	3f dc       	rcall	.-1922   	; 0x7c <USART_StrOut>
 7fe:	8d ec       	ldi	r24, 0xCD	; 205
 800:	91 e0       	ldi	r25, 0x01	; 1
 802:	3c dc       	rcall	.-1928   	; 0x7c <USART_StrOut>
 804:	86 2d       	mov	r24, r6
 806:	6d dc       	rcall	.-1830   	; 0xe2 <USART_Convert>
 808:	85 2d       	mov	r24, r5
 80a:	6b dc       	rcall	.-1834   	; 0xe2 <USART_Convert>
 80c:	8b ec       	ldi	r24, 0xCB	; 203
 80e:	91 e0       	ldi	r25, 0x01	; 1
 810:	35 dc       	rcall	.-1942   	; 0x7c <USART_StrOut>
 812:	88 ed       	ldi	r24, 0xD8	; 216
 814:	91 e0       	ldi	r25, 0x01	; 1
 816:	32 dc       	rcall	.-1948   	; 0x7c <USART_StrOut>
 818:	80 e0       	ldi	r24, 0x00	; 0
 81a:	63 dc       	rcall	.-1850   	; 0xe2 <USART_Convert>
 81c:	82 e0       	ldi	r24, 0x02	; 2
 81e:	61 dc       	rcall	.-1854   	; 0xe2 <USART_Convert>
 820:	8b ec       	ldi	r24, 0xCB	; 203
 822:	91 e0       	ldi	r25, 0x01	; 1
 824:	2b dc       	rcall	.-1962   	; 0x7c <USART_StrOut>
 826:	64 2d       	mov	r22, r4
 828:	8a e0       	ldi	r24, 0x0A	; 10
 82a:	e6 dd       	rcall	.-1076   	; 0x3f8 <SJA_Write>
 82c:	69 2d       	mov	r22, r9
 82e:	8b e0       	ldi	r24, 0x0B	; 11
 830:	e3 dd       	rcall	.-1082   	; 0x3f8 <SJA_Write>
 832:	61 e4       	ldi	r22, 0x41	; 65
 834:	8c e0       	ldi	r24, 0x0C	; 12
 836:	e0 dd       	rcall	.-1088   	; 0x3f8 <SJA_Write>
 838:	63 e4       	ldi	r22, 0x43	; 67
 83a:	8d e0       	ldi	r24, 0x0D	; 13
 83c:	dd dd       	rcall	.-1094   	; 0x3f8 <SJA_Write>
 83e:	6b e4       	ldi	r22, 0x4B	; 75
 840:	8e e0       	ldi	r24, 0x0E	; 14
 842:	da dd       	rcall	.-1100   	; 0x3f8 <SJA_Write>
 844:	6e e4       	ldi	r22, 0x4E	; 78
 846:	8f e0       	ldi	r24, 0x0F	; 15
 848:	d7 dd       	rcall	.-1106   	; 0x3f8 <SJA_Write>
 84a:	6f e4       	ldi	r22, 0x4F	; 79
 84c:	80 e1       	ldi	r24, 0x10	; 16
 84e:	d4 dd       	rcall	.-1112   	; 0x3f8 <SJA_Write>
 850:	67 e5       	ldi	r22, 0x57	; 87
 852:	81 e1       	ldi	r24, 0x11	; 17
 854:	d1 dd       	rcall	.-1118   	; 0x3f8 <SJA_Write>
 856:	6d e2       	ldi	r22, 0x2D	; 45
 858:	82 e1       	ldi	r24, 0x12	; 18
 85a:	ce dd       	rcall	.-1124   	; 0x3f8 <SJA_Write>
 85c:	60 e3       	ldi	r22, 0x30	; 48
 85e:	6e 0d       	add	r22, r14
 860:	83 e1       	ldi	r24, 0x13	; 19
 862:	ca dd       	rcall	.-1132   	; 0x3f8 <SJA_Write>
 864:	c7 01       	movw	r24, r14
 866:	01 96       	adiw	r24, 0x01	; 1
 868:	b5 01       	movw	r22, r10
 86a:	2a d0       	rcall	.+84     	; 0x8c0 <__divmodhi4>
 86c:	7c 01       	movw	r14, r24
 86e:	61 e0       	ldi	r22, 0x01	; 1
 870:	81 e0       	ldi	r24, 0x01	; 1
 872:	c2 dd       	rcall	.-1148   	; 0x3f8 <SJA_Write>
 874:	1b c0       	rjmp	.+54     	; 0x8ac <main+0x1b8>
 876:	23 30       	cpi	r18, 0x03	; 3
 878:	31 05       	cpc	r19, r1
 87a:	c1 f4       	brne	.+48     	; 0x8ac <main+0x1b8>
 87c:	ce 01       	movw	r24, r28
 87e:	01 96       	adiw	r24, 0x01	; 1
 880:	6c 01       	movw	r12, r24
 882:	96 e1       	ldi	r25, 0x16	; 22
 884:	89 2f       	mov	r24, r25
 886:	9c 87       	std	Y+12, r25	; 0x0c
 888:	ab dd       	rcall	.-1194   	; 0x3e0 <SJA_Read>
 88a:	f6 01       	movw	r30, r12
 88c:	81 93       	st	Z+, r24
 88e:	6f 01       	movw	r12, r30
 890:	9c 85       	ldd	r25, Y+12	; 0x0c
 892:	9f 5f       	subi	r25, 0xFF	; 255
 894:	9e 31       	cpi	r25, 0x1E	; 30
 896:	b1 f7       	brne	.-20     	; 0x884 <main+0x190>
 898:	19 86       	std	Y+9, r1	; 0x09
 89a:	8e ed       	ldi	r24, 0xDE	; 222
 89c:	91 e0       	ldi	r25, 0x01	; 1
 89e:	ee db       	rcall	.-2084   	; 0x7c <USART_StrOut>
 8a0:	ce 01       	movw	r24, r28
 8a2:	01 96       	adiw	r24, 0x01	; 1
 8a4:	eb db       	rcall	.-2090   	; 0x7c <USART_StrOut>
 8a6:	8b ec       	ldi	r24, 0xCB	; 203
 8a8:	91 e0       	ldi	r25, 0x01	; 1
 8aa:	e8 db       	rcall	.-2096   	; 0x7c <USART_StrOut>
 8ac:	64 e0       	ldi	r22, 0x04	; 4
 8ae:	81 e0       	ldi	r24, 0x01	; 1
 8b0:	a3 dd       	rcall	.-1210   	; 0x3f8 <SJA_Write>
 8b2:	59 dc       	rcall	.-1870   	; 0x166 <USART_KbHit>
 8b4:	88 23       	and	r24, r24
 8b6:	09 f4       	brne	.+2      	; 0x8ba <main+0x1c6>
 8b8:	63 cf       	rjmp	.-314    	; 0x780 <main+0x8c>
 8ba:	c8 01       	movw	r24, r16
 8bc:	d1 de       	rcall	.-606    	; 0x660 <CAN_MessOut>
 8be:	60 cf       	rjmp	.-320    	; 0x780 <main+0x8c>

000008c0 <__divmodhi4>:
 8c0:	97 fb       	bst	r25, 7
 8c2:	07 2e       	mov	r0, r23
 8c4:	16 f4       	brtc	.+4      	; 0x8ca <__divmodhi4+0xa>
 8c6:	00 94       	com	r0
 8c8:	06 d0       	rcall	.+12     	; 0x8d6 <__divmodhi4_neg1>
 8ca:	77 fd       	sbrc	r23, 7
 8cc:	08 d0       	rcall	.+16     	; 0x8de <__divmodhi4_neg2>
 8ce:	0b d0       	rcall	.+22     	; 0x8e6 <__udivmodhi4>
 8d0:	07 fc       	sbrc	r0, 7
 8d2:	05 d0       	rcall	.+10     	; 0x8de <__divmodhi4_neg2>
 8d4:	3e f4       	brtc	.+14     	; 0x8e4 <__divmodhi4_exit>

000008d6 <__divmodhi4_neg1>:
 8d6:	90 95       	com	r25
 8d8:	81 95       	neg	r24
 8da:	9f 4f       	sbci	r25, 0xFF	; 255
 8dc:	08 95       	ret

000008de <__divmodhi4_neg2>:
 8de:	70 95       	com	r23
 8e0:	61 95       	neg	r22
 8e2:	7f 4f       	sbci	r23, 0xFF	; 255

000008e4 <__divmodhi4_exit>:
 8e4:	08 95       	ret

000008e6 <__udivmodhi4>:
 8e6:	aa 1b       	sub	r26, r26
 8e8:	bb 1b       	sub	r27, r27
 8ea:	51 e1       	ldi	r21, 0x11	; 17
 8ec:	07 c0       	rjmp	.+14     	; 0x8fc <__udivmodhi4_ep>

000008ee <__udivmodhi4_loop>:
 8ee:	aa 1f       	adc	r26, r26
 8f0:	bb 1f       	adc	r27, r27
 8f2:	a6 17       	cp	r26, r22
 8f4:	b7 07       	cpc	r27, r23
 8f6:	10 f0       	brcs	.+4      	; 0x8fc <__udivmodhi4_ep>
 8f8:	a6 1b       	sub	r26, r22
 8fa:	b7 0b       	sbc	r27, r23

000008fc <__udivmodhi4_ep>:
 8fc:	88 1f       	adc	r24, r24
 8fe:	99 1f       	adc	r25, r25
 900:	5a 95       	dec	r21
 902:	a9 f7       	brne	.-22     	; 0x8ee <__udivmodhi4_loop>
 904:	80 95       	com	r24
 906:	90 95       	com	r25
 908:	bc 01       	movw	r22, r24
 90a:	cd 01       	movw	r24, r26
 90c:	08 95       	ret

0000090e <_exit>:
 90e:	f8 94       	cli

00000910 <__stop_program>:
 910:	ff cf       	rjmp	.-2      	; 0x910 <__stop_program>
